-----BEGIN PRIVATE KEY-----
MIIEvgIBADANBgkqhkiG9w0BAQEFAASCBKgwggSkAgEAAoIBAQDUHwCS28hgAfAC
94nqbigCrdFW4vLTYrFIeuCIfAawL3xSVsRHjy6eML4YZ+o3ttyJyXuujyvLzwzL
g9H4GUwCD2DMtL88qVQOc+yhxDkDegY92HvS0t5pgPl1XIC1OzpGivwAxkrSGXqp
nDDVohwSZ5iHSplsfybZSFwK4Wf4AhE8+m0iPQKH+lPk0IXppJg4WDu7/v9L6+YX
yOuAoIbwPuDhEAnumeR2QjrqaXZw5m8nMnDLAg9faLl++sat0HYO+WHD75K8FGoq
7oZGGJo5PFEK7zakXNjBIktVuDMTQZn55XrnaLg9GwmlK7yGMQyzhH3bP460E/DU
IHA8tvGDAgMBAAECggEAG7CMV59fEcFO/mQn2bVVfbwI5qmrfxKUB90acFaYXOll
9i2jY5/6OuYr+m2eMnWpZkcp4QiJdApsJijoANX0iRRO04oIqLeF5HkXe6psstp7
9BjNWSDzrZwLdFmF56J6ofjEmqlH3RM8YuWjrk+CEJj7XTXMv0/910FN2pHAC6yk
kZaL/iNbSuv0yU99nYgZmzedZWbubzoYKsZbzxPxb7sYLfyFeKAralsT2W1WVEVO
rEE4Btcjz1IMJDD0vgaVmv/tl1RMkdjbe6/Db7wlY9vlvvlquD6LvlOZ6uuGwGEg
9NMx63/TbTz/4Tq3KzUYCkD1c+8W3sAawbG9XBjFeQKBgQDrwW+kW4UpBe7doQFw
LusDqR79IXIIZcmOErg2h2HQ+J++sZ3+32pv53ifjC0bo/WwnFrMo3xHOpuDQbUb
2JksJTi2nn+Kg2LNONivfXLu3VY3Lp7ZyHLiFpqdBi8fSmREFJ6r+d3D1yCfaa43
rwMIkLRFU6mxFv0ta8Evnl667QKBgQDmVgOR9wFM21Sii2D/ItbP3ACFKf8hJZ36
ZDU6CF0wIHtgg8AZ7VogL6yauX+Z7ArW+TSTqhskoAhylsWf2e8nJ2FQHBMe/UB9
igCPMMuUUTy+LV+LGg7j4K6ieaARml3CZsiBtAGqXUmXJDi2MAQsytY24xOsEHJg
IDXdqikgLwKBgQDB0Jbtsee5IA2N2q2KAqhmrASz6WkMClI3IKCdA5Og7qS1auQP
ArFIKi16TQ1Qaey0MvZawhSLolzy/XPc3qaeKkODrq3/u5/gQ1mwfBue0Avu9b7W
H/qCcD7P1KOsv8XKSoFftN1iAVvqckEtug1uXzg0vmEFG3csfiel9DbAyQKBgQCB
hfrJ+OElS+zi3oez0O6Ewk0UlNIf3JxicjkwIgXtC0b1tgCvU7YrhUOFWixz7LUH
v+kd5DkRNmCptzj4M7/0/4MMXk0uTvEV5yV7X9AK3kfPFYq1mPioke8B9GzbmTeC
GvRDY2rQV1cLg9XUNVoTqhgdk0G7rx/yCAriVE5+BwKBgEDaxwflRmpAvpxJeYOP
8udTXUISlaEf3ZJP2siFCsmb+X63WBrEwPD94oVBO4xV5SyQsWo+Wr9JYxFs1a8g
3H8wvTYVVm3r9oZOVkL1fWNXhe0jWOtyFH52eRXccxu6EpMKLOC3osDxZVYq1sB+
DTqVacPVkyqSFTq7OrJJyMqq
-----END PRIVATE KEY-----
Certificate:
    Data:
        Version: 1 (0x0)
        Serial Number: 0 (0x0)
        Signature Algorithm: sha256WithRSAEncryption
        Issuer: C=BE, CN=apryse Test Intermediate CA
        Validity
            Not Before: Jan 29 16:16:10 2024 GMT
            Not After : Jan 26 16:16:10 2034 GMT
        Subject: C=BE, CN=apryse Test Leaf Signing
        Subject Public Key Info:
            Public Key Algorithm: rsaEncryption
                Public-Key: (2048 bit)
                Modulus:
                    00:d4:1f:00:92:db:c8:60:01:f0:02:f7:89:ea:6e:
                    28:02:ad:d1:56:e2:f2:d3:62:b1:48:7a:e0:88:7c:
                    06:b0:2f:7c:52:56:c4:47:8f:2e:9e:30:be:18:67:
                    ea:37:b6:dc:89:c9:7b:ae:8f:2b:cb:cf:0c:cb:83:
                    d1:f8:19:4c:02:0f:60:cc:b4:bf:3c:a9:54:0e:73:
                    ec:a1:c4:39:03:7a:06:3d:d8:7b:d2:d2:de:69:80:
                    f9:75:5c:80:b5:3b:3a:46:8a:fc:00:c6:4a:d2:19:
                    7a:a9:9c:30:d5:a2:1c:12:67:98:87:4a:99:6c:7f:
                    26:d9:48:5c:0a:e1:67:f8:02:11:3c:fa:6d:22:3d:
                    02:87:fa:53:e4:d0:85:e9:a4:98:38:58:3b:bb:fe:
                    ff:4b:eb:e6:17:c8:eb:80:a0:86:f0:3e:e0:e1:10:
                    09:ee:99:e4:76:42:3a:ea:69:76:70:e6:6f:27:32:
                    70:cb:02:0f:5f:68:b9:7e:fa:c6:ad:d0:76:0e:f9:
                    61:c3:ef:92:bc:14:6a:2a:ee:86:46:18:9a:39:3c:
                    51:0a:ef:36:a4:5c:d8:c1:22:4b:55:b8:33:13:41:
                    99:f9:e5:7a:e7:68:b8:3d:1b:09:a5:2b:bc:86:31:
                    0c:b3:84:7d:db:3f:8e:b4:13:f0:d4:20:70:3c:b6:
                    f1:83
                Exponent: 65537 (0x10001)
    Signature Algorithm: sha256WithRSAEncryption
    Signature Value:
        7b:8a:d1:c2:ce:8c:b8:a4:f2:f2:b5:c9:f0:f4:e7:d1:92:d2:
        a6:20:37:1e:d2:4d:58:0e:22:4e:64:b9:ef:7d:fe:3a:ed:99:
        f0:5b:50:98:c1:04:37:ff:19:5f:e9:b1:5f:4e:5b:a8:4b:e9:
        a2:2b:cd:ab:42:fa:c1:52:81:82:79:ca:47:2f:32:ce:66:69:
        e5:94:97:8c:7e:81:fd:5f:0e:e4:c0:d5:72:2c:c4:d7:24:d2:
        f6:53:5d:12:d9:1a:6c:5a:00:93:15:e5:6f:cc:63:16:ce:0c:
        35:b1:d3:4a:10:ca:3a:06:83:be:c7:8c:ed:44:6d:f7:c7:85:
        af:6c:b1:4d:6d:c7:0b:f1:af:82:cd:78:a1:3c:84:4f:08:bd:
        ac:2a:cc:19:03:cb:b2:1a:29:2d:70:63:73:ce:c8:38:14:c9:
        fd:16:8b:ba:39:dc:10:ea:c0:c3:f0:ac:61:18:0d:57:07:5a:
        7b:ee:a4:92:c3:09:43:b6:20:b4:1c:1f:19:ce:25:2e:d7:24:
        ee:04:08:15:19:d2:52:7c:64:01:ae:32:32:a0:a1:e8:d5:c1:
        b6:35:8b:9a:02:03:b2:b2:ea:fe:8f:7e:f2:81:23:cf:25:c3:
        5f:0a:de:fc:a3:cb:75:12:63:f6:a2:ea:c7:00:e5:89:42:f4:
        03:54:0a:c9
-----BEGIN CERTIFICATE-----
MIIC1zCCAb8CAQAwDQYJKoZIhvcNAQELBQAwMzELMAkGA1UEBhMCQkUxJDAiBgNV
BAMMG2FwcnlzZSBUZXN0IEludGVybWVkaWF0ZSBDQTAeFw0yNDAxMjkxNjE2MTBa
Fw0zNDAxMjYxNjE2MTBaMDAxCzAJBgNVBAYTAkJFMSEwHwYDVQQDDBhhcHJ5c2Ug
VGVzdCBMZWFmIFNpZ25pbmcwggEiMA0GCSqGSIb3DQEBAQUAA4IBDwAwggEKAoIB
AQDUHwCS28hgAfAC94nqbigCrdFW4vLTYrFIeuCIfAawL3xSVsRHjy6eML4YZ+o3
ttyJyXuujyvLzwzLg9H4GUwCD2DMtL88qVQOc+yhxDkDegY92HvS0t5pgPl1XIC1
OzpGivwAxkrSGXqpnDDVohwSZ5iHSplsfybZSFwK4Wf4AhE8+m0iPQKH+lPk0IXp
pJg4WDu7/v9L6+YXyOuAoIbwPuDhEAnumeR2QjrqaXZw5m8nMnDLAg9faLl++sat
0HYO+WHD75K8FGoq7oZGGJo5PFEK7zakXNjBIktVuDMTQZn55XrnaLg9GwmlK7yG
MQyzhH3bP460E/DUIHA8tvGDAgMBAAEwDQYJKoZIhvcNAQELBQADggEBAHuK0cLO
jLik8vK1yfD059GS0qYgNx7STVgOIk5kue99/jrtmfBbUJjBBDf/GV/psV9OW6hL
6aIrzatC+sFSgYJ5ykcvMs5maeWUl4x+gf1fDuTA1XIsxNck0vZTXRLZGmxaAJMV
5W/MYxbODDWx00oQyjoGg77HjO1EbffHha9ssU1txwvxr4LNeKE8hE8IvawqzBkD
y7IaKS1wY3POyDgUyf0Wi7o53BDqwMPwrGEYDVcHWnvupJLDCUO2ILQcHxnOJS7X
JO4ECBUZ0lJ8ZAGuMjKgoejVwbY1i5oCA7Ky6v6PfvKBI88lw18K3vyjy3USY/ai
6scA5YlC9ANUCsk=
-----END CERTIFICATE-----
Certificate:
    Data:
        Version: 3 (0x2)
        Serial Number: 0 (0x0)
        Signature Algorithm: sha256WithRSAEncryption
        Issuer: C=BE, CN=apryse Test Intermediate1 CA
        Validity
            Not Before: Jan 29 16:16:05 2024 GMT
            Not After : Jan 26 16:16:05 2034 GMT
        Subject: C=BE, CN=apryse Test Intermediate CA
        Subject Public Key Info:
            Public Key Algorithm: rsaEncryption
                Public-Key: (2048 bit)
                Modulus:
                    00:98:3e:1e:41:3d:7a:99:56:a4:51:47:c1:0d:22:
                    21:14:80:4d:f1:22:1a:ee:d6:75:59:8e:3b:4b:79:
                    30:48:22:b9:87:be:a2:b0:3f:05:00:0d:ea:2e:28:
                    43:55:4b:8e:9c:b7:51:e8:78:d6:ae:db:ce:fa:64:
                    ff:33:07:6d:70:a0:e5:eb:b1:da:9f:5f:17:95:8a:
                    ca:90:4e:5b:52:6b:67:4b:d8:9a:5c:b9:9f:e9:d6:
                    da:43:a5:f5:99:f4:e5:f5:93:bb:be:4e:29:b9:81:
                    03:7d:fa:e4:59:56:4d:9a:29:a4:82:a9:eb:9c:c8:
                    ca:d2:37:1f:35:57:26:50:9e:68:52:e3:6a:24:b1:
                    9f:2c:0a:48:d0:07:72:3c:1d:73:1c:b9:78:7a:1b:
                    02:86:5e:0d:26:87:bc:1f:9c:e2:6a:4b:8e:ee:cc:
                    82:ed:30:27:46:e8:8a:65:cd:15:b2:c4:ed:02:9c:
                    48:42:32:ac:c3:cb:cb:3f:08:40:bc:ba:a3:b4:8a:
                    d5:15:4e:0d:ce:21:57:ed:b0:79:15:5f:9c:b8:c8:
                    13:64:94:93:37:94:3d:f4:42:94:2e:cb:1c:10:4f:
                    e0:85:28:d5:15:19:7b:50:48:e7:91:cf:d0:e7:ca:
                    82:14:81:93:73:ce:d6:fd:31:94:fb:df:7c:b7:53:
                    e4:41
                Exponent: 65537 (0x10001)
        X509v3 extensions:
            X509v3 Basic Constraints: critical
                CA:TRUE
            X509v3 Key Usage: critical
                Certificate Sign
            X509v3 Subject Key Identifier: 
                FC:C4:29:33:00:62:8B:9F:CE:5C:5B:0A:43:22:37:01:FD:76:2E:AB
            X509v3 Authority Key Identifier: 
                F3:80:C4:F1:AE:72:70:BE:36:E6:A8:B7:BD:5A:76:29:ED:26:F5:58
    Signature Algorithm: sha256WithRSAEncryption
    Signature Value:
        4b:8c:27:88:5d:0f:af:85:89:d0:7f:44:37:ca:ed:72:75:06:
        f9:2d:56:3c:ef:b2:85:d4:5e:1c:83:93:bb:2c:75:f6:5f:2c:
        42:08:02:2f:7d:7b:07:08:27:51:f2:e4:d9:b6:46:cb:20:0b:
        9f:da:f6:28:9c:88:a6:6b:4f:5b:5c:77:6a:9f:39:20:a0:4b:
        f1:2f:94:4e:e2:e4:b4:4e:22:f9:57:be:45:67:0e:ff:c4:01:
        d8:41:e5:7f:f4:e4:e8:29:83:6e:20:fd:dc:63:e6:fa:33:bd:
        fe:5d:1c:5b:6a:c5:b8:a9:a9:55:59:cb:39:aa:3b:a4:0d:c0:
        9a:25:ca:76:6d:ad:5e:be:7d:a6:2c:e5:cd:d2:4c:d6:48:05:
        a0:4f:fd:84:d4:ee:95:9f:5f:5f:f6:7e:cf:7a:47:ff:e8:a6:
        ec:b9:8d:11:0d:10:a2:ad:e2:bd:80:a0:31:5f:a5:22:c2:7c:
        5e:70:49:25:64:46:94:36:8b:d9:60:31:21:29:40:66:91:10:
        37:e5:c4:0e:fe:56:3e:8c:39:50:9a:97:0b:8c:d1:b6:04:42:
        60:d4:2d:42:8b:f1:2b:18:eb:b7:6a:bb:1f:69:c5:65:49:3c:
        fd:5d:65:ac:aa:80:e0:88:5b:8a:1e:0c:92:06:3d:6d:d9:c2:
        42:26:c1:54
-----BEGIN CERTIFICATE-----
MIIDRTCCAi2gAwIBAgIBADANBgkqhkiG9w0BAQsFADA0MQswCQYDVQQGEwJCRTEl
MCMGA1UEAwwcYXByeXNlIFRlc3QgSW50ZXJtZWRpYXRlMSBDQTAeFw0yNDAxMjkx
NjE2MDVaFw0zNDAxMjYxNjE2MDVaMDMxCzAJBgNVBAYTAkJFMSQwIgYDVQQDDBth
cHJ5c2UgVGVzdCBJbnRlcm1lZGlhdGUgQ0EwggEiMA0GCSqGSIb3DQEBAQUAA4IB
DwAwggEKAoIBAQCYPh5BPXqZVqRRR8ENIiEUgE3xIhru1nVZjjtLeTBIIrmHvqKw
PwUADeouKENVS46ct1HoeNau2876ZP8zB21woOXrsdqfXxeVisqQTltSa2dL2Jpc
uZ/p1tpDpfWZ9OX1k7u+Tim5gQN9+uRZVk2aKaSCqeucyMrSNx81VyZQnmhS42ok
sZ8sCkjQB3I8HXMcuXh6GwKGXg0mh7wfnOJqS47uzILtMCdG6IplzRWyxO0CnEhC
MqzDy8s/CEC8uqO0itUVTg3OIVftsHkVX5y4yBNklJM3lD30QpQuyxwQT+CFKNUV
GXtQSOeRz9DnyoIUgZNzztb9MZT733y3U+RBAgMBAAGjYzBhMA8GA1UdEwEB/wQF
MAMBAf8wDgYDVR0PAQH/BAQDAgIEMB0GA1UdDgQWBBT8xCkzAGKLn85cWwpDIjcB
/XYuqzAfBgNVHSMEGDAWgBTzgMTxrnJwvjbmqLe9WnYp7Sb1WDANBgkqhkiG9w0B
AQsFAAOCAQEAS4wniF0Pr4WJ0H9EN8rtcnUG+S1WPO+yhdReHIOTuyx19l8sQggC
L317BwgnUfLk2bZGyyALn9r2KJyIpmtPW1x3ap85IKBL8S+UTuLktE4i+Ve+RWcO
/8QB2EHlf/Tk6CmDbiD93GPm+jO9/l0cW2rFuKmpVVnLOao7pA3AmiXKdm2tXr59
pizlzdJM1kgFoE/9hNTulZ9fX/Z+z3pH/+im7LmNEQ0Qoq3ivYCgMV+lIsJ8XnBJ
JWRGlDaL2WAxISlAZpEQN+XEDv5WPow5UJqXC4zRtgRCYNQtQovxKxjrt2q7H2nF
ZUk8/V1lrKqA4Ihbih4MkgY9bdnCQibBVA==
-----END CERTIFICATE-----
Certificate:
    Data:
        Version: 3 (0x2)
        Serial Number: 1 (0x1)
        Signature Algorithm: sha256WithRSAEncryption
        Issuer: C=US, CN=Test Root CA
        Validity
            Not Before: Jan 29 16:15:49 2024 GMT
            Not After : Jan 26 16:15:49 2034 GMT
        Subject: C=BE, CN=apryse Test Intermediate1 CA
        Subject Public Key Info:
            Public Key Algorithm: rsaEncryption
                Public-Key: (2048 bit)
                Modulus:
                    00:ac:cc:f8:73:38:c0:ab:9b:69:e0:ce:31:9d:8c:
                    0a:10:23:58:22:80:23:94:b3:3c:2c:0c:9e:9d:a9:
                    a8:e1:69:39:0d:ea:88:9e:fb:c7:3e:bd:df:bc:0f:
                    4d:75:84:af:fa:c4:8f:ac:74:10:9b:e1:dc:91:a6:
                    fb:d5:d5:4f:f6:fa:c0:70:31:3f:5c:2d:da:53:78:
                    a6:72:94:37:b3:19:85:88:a1:92:5b:fb:1a:0f:47:
                    56:2d:dc:ba:d3:d6:b7:fe:70:90:c9:93:e2:06:61:
                    b8:4d:e0:04:88:b3:45:24:c7:88:61:22:84:ec:bc:
                    9e:f8:f8:9d:5c:aa:7d:9d:fb:3d:4e:bd:9a:9c:10:
                    f3:9b:d7:94:e7:d9:b3:14:db:ec:f0:16:34:32:7c:
                    b1:b6:ba:54:bd:a0:ee:65:49:67:77:6c:7c:0f:69:
                    80:61:87:ce:81:e9:f8:66:e6:06:e4:37:23:25:9c:
                    ca:03:63:c2:43:cf:d5:65:c7:e8:8c:f7:ed:2e:88:
                    fa:41:df:7f:ea:55:8d:c3:21:9b:0c:0b:58:4a:f8:
                    de:87:13:89:3d:82:54:67:0f:3b:65:66:86:2f:ce:
                    d7:7e:87:ab:66:ea:b8:05:e6:f9:92:ac:f5:fc:5a:
                    13:7a:bc:2b:cb:fe:71:5d:cd:14:54:2b:c8:93:71:
                    ce:af
                Exponent: 65537 (0x10001)
        X509v3 extensions:
            X509v3 Basic Constraints: critical
                CA:TRUE
            X509v3 Key Usage: critical
                Certificate Sign
            X509v3 Subject Key Identifier: 
                F3:80:C4:F1:AE:72:70:BE:36:E6:A8:B7:BD:5A:76:29:ED:26:F5:58
            X509v3 Authority Key Identifier: 
                E7:96:3D:2A:64:C8:CF:C1:F8:79:3E:20:08:4E:60:35:DA:4D:CA:7E
    Signature Algorithm: sha256WithRSAEncryption
    Signature Value:
        9a:48:17:c8:cb:81:92:97:9d:5e:da:2b:13:d8:ff:30:2b:8f:
        3f:04:f4:b4:14:35:89:8f:7a:5a:43:cf:af:72:fd:82:6b:1f:
        6c:5b:75:7c:c3:32:f2:90:be:73:0e:52:05:dd:62:70:ae:8d:
        e4:c6:70:bd:86:ae:a6:33:60:fa:00:0f:05:d6:51:34:ae:81:
        4b:01:c4:94:15:3a:e2:ce:37:d4:ac:fd:8c:66:a9:87:81:2d:
        9f:d6:28:a7:75:14:85:7f:c5:c6:63:ff:2f:ca:83:b0:ed:8a:
        94:03:7a:8a:42:1a:93:30:b8:0e:c7:7c:14:5a:c5:7f:95:c0:
        8d:0c:02:05:58:69:6c:d4:ae:56:2e:95:7d:e7:54:db:46:97:
        2a:c5:7b:97:72:48:60:ef:a5:28:33:48:f1:63:e2:2a:77:ef:
        55:ab:a1:41:b4:31:93:be:be:fb:95:80:99:b8:05:e9:70:ac:
        82:f5:6f:31:f5:c1:bf:ac:1d:c9:bf:6c:59:a6:2e:78:47:40:
        e9:8a:d5:a7:93:d9:83:74:35:cd:42:48:38:84:cc:cc:9f:2e:
        53:dc:76:e6:99:6f:78:d2:eb:6e:75:8f:2d:8d:70:f2:c5:8b:
        66:7e:20:8c:09:2a:d1:a5:be:09:f3:b4:c2:17:4c:82:26:ec:
        8a:01:99:c2
-----BEGIN CERTIFICATE-----
MIIDNjCCAh6gAwIBAgIBATANBgkqhkiG9w0BAQsFADAkMQswCQYDVQQGEwJVUzEV
MBMGA1UEAwwMVGVzdCBSb290IENBMB4XDTI0MDEyOTE2MTU0OVoXDTM0MDEyNjE2
MTU0OVowNDELMAkGA1UEBhMCQkUxJTAjBgNVBAMMHGFwcnlzZSBUZXN0IEludGVy
bWVkaWF0ZTEgQ0EwggEiMA0GCSqGSIb3DQEBAQUAA4IBDwAwggEKAoIBAQCszPhz
OMCrm2ngzjGdjAoQI1gigCOUszwsDJ6dqajhaTkN6oie+8c+vd+8D011hK/6xI+s
dBCb4dyRpvvV1U/2+sBwMT9cLdpTeKZylDezGYWIoZJb+xoPR1Yt3LrT1rf+cJDJ
k+IGYbhN4ASIs0Ukx4hhIoTsvJ74+J1cqn2d+z1OvZqcEPOb15Tn2bMU2+zwFjQy
fLG2ulS9oO5lSWd3bHwPaYBhh86B6fhm5gbkNyMlnMoDY8JDz9Vlx+iM9+0uiPpB
33/qVY3DIZsMC1hK+N6HE4k9glRnDztlZoYvztd+h6tm6rgF5vmSrPX8WhN6vCvL
/nFdzRRUK8iTcc6vAgMBAAGjYzBhMA8GA1UdEwEB/wQFMAMBAf8wDgYDVR0PAQH/
BAQDAgIEMB0GA1UdDgQWBBTzgMTxrnJwvjbmqLe9WnYp7Sb1WDAfBgNVHSMEGDAW
gBTnlj0qZMjPwfh5PiAITmA12k3KfjANBgkqhkiG9w0BAQsFAAOCAQEAmkgXyMuB
kpedXtorE9j/MCuPPwT0tBQ1iY96WkPPr3L9gmsfbFt1fMMy8pC+cw5SBd1icK6N
5MZwvYaupjNg+gAPBdZRNK6BSwHElBU64s431Kz9jGaph4Etn9Yop3UUhX/FxmP/
L8qDsO2KlAN6ikIakzC4Dsd8FFrFf5XAjQwCBVhpbNSuVi6VfedU20aXKsV7l3JI
YO+lKDNI8WPiKnfvVauhQbQxk76++5WAmbgF6XCsgvVvMfXBv6wdyb9sWaYueEdA
6YrVp5PZg3Q1zUJIOITMzJ8uU9x25plveNLrbnWPLY1w8sWLZn4gjAkq0aW+CfO0
whdMgibsigGZwg==
-----END CERTIFICATE-----
Certificate:
    Data:
        Version: 3 (0x2)
        Serial Number: 0 (0x0)
        Signature Algorithm: sha256WithRSAEncryption
        Issuer: C=US, CN=Test Root CA
        Validity
            Not Before: Jan 29 16:15:09 2024 GMT
            Not After : Jan 26 16:15:09 2034 GMT
        Subject: C=US, CN=Test Root CA
        Subject Public Key Info:
            Public Key Algorithm: rsaEncryption
                Public-Key: (2048 bit)
                Modulus:
                    00:ca:4c:ce:5f:74:2b:8f:48:24:be:63:bf:10:9f:
                    e5:34:f1:b4:dc:d2:3e:70:26:2f:20:c7:4e:be:59:
                    22:cf:c8:23:7d:37:bb:04:39:c4:8e:42:5e:a6:3e:
                    3d:2f:b0:a7:73:aa:cc:2f:a5:fa:18:87:99:bf:c2:
                    75:65:c4:e8:5c:59:3e:3d:13:22:00:41:8f:4b:a6:
                    a2:ce:b2:08:d4:a3:f7:ab:bf:d7:f0:32:d2:6e:fc:
                    a8:84:f8:30:0b:6a:92:63:fc:bb:ca:26:e1:1b:3a:
                    1d:db:cb:ba:59:67:47:59:36:0b:71:9d:94:93:74:
                    ce:9b:f6:57:b9:5a:5b:5f:34:11:0e:25:1e:8c:ca:
                    cf:80:14:58:91:00:c5:4a:b3:3e:d0:bc:13:09:a3:
                    cd:16:08:6e:36:1f:e8:67:46:24:dd:70:1f:b2:aa:
                    37:60:29:a2:cd:f8:1a:b9:47:97:dc:3d:49:6e:72:
                    e8:5c:c8:d8:90:8d:38:59:55:42:01:ce:dc:cb:c8:
                    65:c6:4d:29:54:74:c2:2f:95:09:ba:ab:64:ab:c9:
                    44:27:f2:ed:e5:76:72:cb:35:ba:40:e9:03:e3:a1:
                    e9:b3:74:4a:7e:26:51:ea:18:28:1d:a5:da:15:5f:
                    74:a5:61:6d:3f:e8:62:e9:b4:d0:23:c5:f6:58:ca:
                    77:85
                Exponent: 65537 (0x10001)
        X509v3 extensions:
            X509v3 Basic Constraints: critical
                CA:TRUE
            X509v3 Key Usage: critical
                Certificate Sign
            X509v3 Subject Key Identifier: 
                E7:96:3D:2A:64:C8:CF:C1:F8:79:3E:20:08:4E:60:35:DA:4D:CA:7E
    Signature Algorithm: sha256WithRSAEncryption
    Signature Value:
        92:b4:06:f8:81:c4:e0:c5:2b:84:24:8c:f7:78:cb:ec:f9:f5:
        c7:32:5d:05:68:32:f8:04:6f:ec:e5:70:6d:5d:7f:69:6d:2e:
        95:8b:fb:6c:46:8f:28:70:40:67:56:e9:11:40:3c:c0:76:0d:
        f4:d1:41:fc:58:0a:c7:b0:ab:1d:d6:d5:c3:09:96:e3:f0:c8:
        2a:b2:52:35:71:47:d3:47:2e:c9:cd:8c:88:c4:60:51:a2:48:
        23:d6:b3:c0:3d:be:5d:2e:c9:a4:b4:40:a1:50:38:c4:e3:da:
        c6:52:b8:ec:7f:9c:ed:73:ce:6d:21:82:3d:1b:5c:d5:1a:6f:
        ae:40:f2:60:1c:a6:4c:a6:5f:4b:db:e4:d1:32:ba:89:54:b0:
        a2:fb:1f:a7:89:ad:fd:57:b7:e9:30:ad:2f:a8:f9:6b:51:02:
        82:4e:4b:78:48:92:a6:9f:fd:88:a7:53:c4:b0:70:67:e9:52:
        9a:45:76:cd:aa:81:e7:1c:ec:6e:00:90:43:34:00:21:89:5b:
        21:a6:92:9f:42:b8:27:20:09:18:1c:e9:85:de:4a:31:33:00:
        e8:7a:80:ae:10:93:bc:16:df:12:cd:64:d6:46:cf:5e:4f:19:
        0c:76:0b:d8:ec:7a:64:72:ea:5a:e0:03:7c:4d:60:5d:cb:6b:
        6e:02:b4:83
-----BEGIN CERTIFICATE-----
MIIDBTCCAe2gAwIBAgIBADANBgkqhkiG9w0BAQsFADAkMQswCQYDVQQGEwJVUzEV
MBMGA1UEAwwMVGVzdCBSb290IENBMB4XDTI0MDEyOTE2MTUwOVoXDTM0MDEyNjE2
MTUwOVowJDELMAkGA1UEBhMCVVMxFTATBgNVBAMMDFRlc3QgUm9vdCBDQTCCASIw
DQYJKoZIhvcNAQEBBQADggEPADCCAQoCggEBAMpMzl90K49IJL5jvxCf5TTxtNzS
PnAmLyDHTr5ZIs/II303uwQ5xI5CXqY+PS+wp3OqzC+l+hiHmb/CdWXE6FxZPj0T
IgBBj0umos6yCNSj96u/1/Ay0m78qIT4MAtqkmP8u8om4Rs6HdvLullnR1k2C3Gd
lJN0zpv2V7laW180EQ4lHozKz4AUWJEAxUqzPtC8EwmjzRYIbjYf6GdGJN1wH7Kq
N2Apos34GrlHl9w9SW5y6FzI2JCNOFlVQgHO3MvIZcZNKVR0wi+VCbqrZKvJRCfy
7eV2css1ukDpA+Oh6bN0Sn4mUeoYKB2l2hVfdKVhbT/oYum00CPF9ljKd4UCAwEA
AaNCMEAwDwYDVR0TAQH/BAUwAwEB/zAOBgNVHQ8BAf8EBAMCAgQwHQYDVR0OBBYE
FOeWPSpkyM/B+Hk+IAhOYDXaTcp+MA0GCSqGSIb3DQEBCwUAA4IBAQCStAb4gcTg
xSuEJIz3eMvs+fXHMl0FaDL4BG/s5XBtXX9pbS6Vi/tsRo8ocEBnVukRQDzAdg30
0UH8WArHsKsd1tXDCZbj8MgqslI1cUfTRy7JzYyIxGBRokgj1rPAPb5dLsmktECh
UDjE49rGUrjsf5ztc85tIYI9G1zVGm+uQPJgHKZMpl9L2+TRMrqJVLCi+x+nia39
V7fpMK0vqPlrUQKCTkt4SJKmn/2Ip1PEsHBn6VKaRXbNqoHnHOxuAJBDNAAhiVsh
ppKfQrgnIAkYHOmF3koxMwDoeoCuEJO8Ft8SzWTWRs9eTxkMdgvY7Hpkcupa4AN8
TWBdy2tuArSD
-----END CERTIFICATE-----
